target datalayout = "e-m:e-p270:32:32-p271:32:32-p272:64:64-i64:64-i128:128-f80:128-n8:16:32:64-S128"
target triple = "x86_64-pc-linux-gnu"

%struct._object = type { i64, ptr }
%"class.pybind11::handle" = type { ptr }

; Function Attrs: mustprogress uwtable
define internal void @_ZL10_Py_DECREFP7_object(ptr noundef %0) #1 {
  %2 = alloca ptr, align 8
  store ptr %0, ptr %2, align 8
  %3 = load ptr, ptr %2, align 8
  %4 = getelementptr inbounds %struct._object, ptr %3, i32 0, i32 0
  %5 = load i64, ptr %4, align 8
  %6 = add nsw i64 %5, -1
  store i64 %6, ptr %4, align 8
  %7 = icmp ne i64 %6, 0
  br i1 %7, label %8, label %9

8:                                                ; preds = %1
  br label %11

9:                                                ; preds = %1
  %10 = load ptr, ptr %2, align 8
  call void @_Py_Dealloc(ptr noundef %10)
  br label %11

11:                                               ; preds = %9, %8
  ret void
}

; Function Attrs: mustprogress uwtable
define internal void @_ZL11_Py_XDECREFP7_object(ptr noundef %0) #1 {
  %2 = alloca ptr, align 8
  store ptr %0, ptr %2, align 8
  %3 = load ptr, ptr %2, align 8
  %4 = icmp ne ptr %3, null
  br i1 %4, label %5, label %7

5:                                                ; preds = %1
  %6 = load ptr, ptr %2, align 8
  call void @_ZL10_Py_DECREFP7_object(ptr noundef %6)
  br label %7

7:                                                ; preds = %5, %1
  ret void
}

; Function Attrs: mustprogress uwtable
define linkonce_odr hidden noundef nonnull align 8 dereferenceable(8) ptr @_ZNKR8pybind116handle7dec_refEv(ptr noundef nonnull align 8 dereferenceable(8) %0) #1 comdat align 2 {
  %2 = alloca ptr, align 8
  store ptr %0, ptr %2, align 8
  %3 = load ptr, ptr %2, align 8
  %4 = getelementptr inbounds %"class.pybind11::handle", ptr %3, i32 0, i32 0
  %5 = load ptr, ptr %4, align 8
  call void @_ZL11_Py_XDECREFP7_object(ptr noundef %5)
  ret ptr %3
}

; Function Attrs: mustprogress nounwind uwtable
define linkonce_odr hidden void @_ZN8pybind116objectD2Ev(ptr noundef nonnull align 8 dereferenceable(8) %0) unnamed_addr #0 comdat align 2 personality ptr @__gxx_personality_v0 {
  %2 = alloca ptr, align 8
  store ptr %0, ptr %2, align 8
  %3 = load ptr, ptr %2, align 8
  %4 = invoke noundef nonnull align 8 dereferenceable(8) ptr @_ZNKR8pybind116handle7dec_refEv(ptr noundef nonnull align 8 dereferenceable(8) %3)
          to label %5 unwind label %6

5:                                                ; preds = %1
  ret void

6:                                                ; preds = %1
  %7 = landingpad { ptr, i32 }
          catch ptr null
  %8 = extractvalue { ptr, i32 } %7, 0
  call void @__clang_call_terminate(ptr %8) #20
  unreachable
}

; Function Attrs: mustprogress nounwind uwtable
define linkonce_odr hidden void @_ZN8pybind116detail12generic_typeD2Ev(ptr noundef nonnull align 8 dereferenceable(8) %0) unnamed_addr #0 comdat align 2 {
  %2 = alloca ptr, align 8
  store ptr %0, ptr %2, align 8
  %3 = load ptr, ptr %2, align 8
  call void @_ZN8pybind116objectD2Ev(ptr noundef nonnull align 8 dereferenceable(8) %3) #16
  ret void
}

; Function Attrs: mustprogress nounwind uwtable
define internal void @_ZN8pybind116class_IZ35test_submodule_factory_constructorsRNS_7module_EE10NoisyAllocJEED2Ev(ptr noundef nonnull align 8 dereferenceable(8) %0) unnamed_addr #0 align 2 {
  %2 = alloca ptr, align 8
  store ptr %0, ptr %2, align 8
  %3 = load ptr, ptr %2, align 8
  call void @_ZN8pybind116detail12generic_typeD2Ev(ptr noundef nonnull align 8 dereferenceable(8) %3) #16
  ret void
}